; Function Attrs: nounwind uwtable
define dso_local void @schedule_trigger_save() local_unnamed_addr #0 {
  %1 = tail call i32 @pthread_mutex_lock(ptr noundef nonnull @state_save_lock) #6
  %.not = icmp eq i32 %1, 0
  br i1 %.not, label %4, label %2

2:                                                ; preds = %0
  %3 = tail call ptr @__errno_location() #7
  store i32 %1, ptr %3, align 4
  tail call void (ptr, ...) @fatal_abort(ptr noundef nonnull @.str, ptr noundef nonnull @__func__.schedule_trigger_save) #8
  unreachable

4:                                                ; preds = %0
  %5 = load i32, ptr @save_triggers, align 4
  %6 = add nsw i32 %5, 1
  store i32 %6, ptr @save_triggers, align 4
  %7 = tail call i32 @pthread_cond_broadcast(ptr noundef nonnull @state_save_cond) #6
  %.not8 = icmp eq i32 %7, 0
  br i1 %.not8, label %11, label %8

8:                                                ; preds = %4
  %9 = tail call ptr @__errno_location() #7
  store i32 %7, ptr %9, align 4
  %10 = tail call i32 (ptr, ...) @error(ptr noundef nonnull @.str.1, ptr noundef nonnull @.str.2, i32 noundef 116, ptr noundef nonnull @__func__.schedule_trigger_save) #6
  br label %11

11:                                               ; preds = %8, %4
  %12 = tail call i32 @pthread_mutex_unlock(ptr noundef nonnull @state_save_lock) #6
  %.not9 = icmp eq i32 %12, 0
  br i1 %.not9, label %15, label %13

13:                                               ; preds = %11
  %14 = tail call ptr @__errno_location() #7
  store i32 %12, ptr %14, align 4
  tail call void (ptr, ...) @fatal_abort(ptr noundef nonnull @.str.3, ptr noundef nonnull @__func__.schedule_trigger_save) #8
  unreachable

15:                                               ; preds = %11
  ret void
}